; Function Attrs: mustprogress nofree norecurse nosync nounwind willreturn memory(argmem: read) uwtable
define noundef i32 @_ZNK2cv10BOWTrainer16descriptorsCountEv(ptr nocapture noundef nonnull readonly align 8 dereferenceable(36) %0) local_unnamed_addr #9 align 2 {
  %2 = getelementptr inbounds i8, ptr %0, i64 8
  %3 = load ptr, ptr %2, align 8
  %4 = getelementptr inbounds i8, ptr %0, i64 16
  %5 = load ptr, ptr %4, align 8
  %6 = icmp eq ptr %3, %5
  %7 = getelementptr inbounds i8, ptr %0, i64 32
  %8 = load i32, ptr %7, align 8
  %9 = select i1 %6, i32 0, i32 %8
  ret i32 %9
}